******************************************************************************
             TMS320C2000 Linker PC v6.2.11                     
******************************************************************************
>> Linked Mon Nov 28 22:06:05 2016

OUTPUT FILE NAME:   <test_28377s.out>
ENTRY POINT SYMBOL: "code_start"  address: 00000000


MEMORY CONFIGURATION

         name            origin    length      used     unused   attr    fill
----------------------  --------  ---------  --------  --------  ----  --------
PAGE 0:
  BEGIN                 00000000   00000002  00000002  00000000  RWIX
  RAMM0                 00000122   000002de  000002dd  00000001  RWIX
  RAMLS0                00008000   00000800  00000800  00000000  RWIX
  RAMLS1                00008800   00000800  000007fd  00000003  RWIX
  RAMLS2                00009000   00000800  000007e4  0000001c  RWIX
  RAMLS3                00009800   00000800  000007fc  00000004  RWIX
  RAMLS4                0000a000   00000800  00000256  000005aa  RWIX
  RAMD0                 0000b000   00000800  000007fe  00000002  RWIX
  RAMGS7                00013000   00001000  00000000  00001000  RWIX
  RESET                 003fffc0   00000002  00000000  00000002  RWIX

PAGE 1:
  BOOT_RSVD             00000002   00000120  00000000  00000120  RWIX
  RAMM1                 00000400   00000400  00000000  00000400  RWIX
  ADCA_RESULT           00000b00   00000020  00000018  00000008  RWIX
  ADCB_RESULT           00000b20   00000020  00000018  00000008  RWIX
  ADCC_RESULT           00000b40   00000020  00000018  00000008  RWIX
  ADCD_RESULT           00000b60   00000020  00000018  00000008  RWIX
  CPU_TIMER0            00000c00   00000008  00000008  00000000  RWIX
  CPU_TIMER1            00000c08   00000008  00000008  00000000  RWIX
  CPU_TIMER2            00000c10   00000008  00000008  00000000  RWIX
  PIE_CTRL              00000ce0   00000020  0000001a  00000006  RWIX
  PIE_VECT              00000d00   00000200  000001c0  00000040  RWIX
  DMA                   00001000   00000200  000000e0  00000120  RWIX
  CLA1                  00001400   00000040  0000003e  00000002  RWIX
  EPWM1                 00004000   00000100  00000100  00000000  RWIX
  EPWM2                 00004100   00000100  00000100  00000000  RWIX
  EPWM3                 00004200   00000100  00000100  00000000  RWIX
  EPWM4                 00004300   00000100  00000100  00000000  RWIX
  EPWM5                 00004400   00000100  00000100  00000000  RWIX
  EPWM6                 00004500   00000100  00000100  00000000  RWIX
  EPWM7                 00004600   00000100  00000100  00000000  RWIX
  EPWM8                 00004700   00000100  00000100  00000000  RWIX
  EPWM9                 00004800   00000100  00000100  00000000  RWIX
  EPWM10                00004900   00000100  00000100  00000000  RWIX
  EPWM11                00004a00   00000100  00000100  00000000  RWIX
  EPWM12                00004b00   00000100  00000100  00000000  RWIX
  ECAP1                 00005000   00000020  00000020  00000000  RWIX
  ECAP2                 00005020   00000020  00000020  00000000  RWIX
  ECAP3                 00005040   00000020  00000020  00000000  RWIX
  ECAP4                 00005060   00000020  00000020  00000000  RWIX
  ECAP5                 00005080   00000020  00000020  00000000  RWIX
  ECAP6                 000050a0   00000020  00000020  00000000  RWIX
  EQEP1                 00005100   00000040  00000022  0000001e  RWIX
  EQEP2                 00005140   00000040  00000022  0000001e  RWIX
  EQEP3                 00005180   00000040  00000022  0000001e  RWIX
  DACA                  00005c00   00000010  00000008  00000008  RWIX
  DACB                  00005c10   00000010  00000008  00000008  RWIX
  DACC                  00005c20   00000010  00000008  00000008  RWIX
  CMPSS1                00005c80   00000020  00000020  00000000  RWIX
  CMPSS2                00005ca0   00000020  00000020  00000000  RWIX
  CMPSS3                00005cc0   00000020  00000020  00000000  RWIX
  CMPSS4                00005ce0   00000020  00000020  00000000  RWIX
  CMPSS5                00005d00   00000020  00000020  00000000  RWIX
  CMPSS6                00005d20   00000020  00000020  00000000  RWIX
  CMPSS7                00005d40   00000020  00000020  00000000  RWIX
  CMPSS8                00005d60   00000020  00000020  00000000  RWIX
  SDFM1                 00005e00   00000080  00000080  00000000  RWIX
  SDFM2                 00005e80   00000080  00000080  00000000  RWIX
  MCBSPA                00006000   00000040  00000024  0000001c  RWIX
  MCBSPB                00006040   00000040  00000024  0000001c  RWIX
  SPIA                  00006100   00000010  00000010  00000000  RWIX
  SPIB                  00006110   00000010  00000010  00000000  RWIX
  SPIC                  00006120   00000010  00000010  00000000  RWIX
  SPID                  00006130   00000010  00000000  00000010  RWIX
  UPP                   00006200   00000100  00000048  000000b8  RWIX
  WD                    00007000   00000040  0000002b  00000015  RWIX
  NMIINTRUPT            00007060   00000010  00000007  00000009  RWIX
  XINT                  00007070   00000010  0000000b  00000005  RWIX
  SCIA                  00007200   00000010  00000010  00000000  RWIX
  SCIB                  00007210   00000010  00000010  00000000  RWIX
  SCIC                  00007220   00000010  00000010  00000000  RWIX
  SCID                  00007230   00000010  00000010  00000000  RWIX
  I2CA                  00007300   00000040  00000022  0000001e  RWIX
  I2CB                  00007340   00000040  00000022  0000001e  RWIX
  ADCA                  00007400   00000080  00000080  00000000  RWIX
  ADCB                  00007480   00000080  00000080  00000000  RWIX
  ADCC                  00007500   00000080  00000080  00000000  RWIX
  ADCD                  00007580   00000080  00000080  00000000  RWIX
  INPUT_XBAR            00007900   00000020  00000020  00000000  RWIX
  XBAR                  00007920   00000020  00000020  00000000  RWIX
  SYNC_SOC              00007940   00000010  00000006  0000000a  RWIX
  DMACLASRCSEL          00007980   00000040  0000001a  00000026  RWIX
  EPWM_XBAR             00007a00   00000040  00000040  00000000  RWIX
  CLB_XBAR              00007a40   00000040  00000000  00000040  RWIX
  OUTPUT_XBAR           00007a80   00000040  00000040  00000000  RWIX
  GPIOCTRL              00007c00   00000180  00000180  00000000  RWIX
  GPIODAT               00007f00   00000030  00000030  00000000  RWIX
  RAMLS5                0000a800   00000800  000002bc  00000544  RWIX
  RAMD1                 0000b800   00000800  00000000  00000800  RWIX
  RAMGS0                0000c000   00001000  00001000  00000000  RWIX
  RAMGS1                0000d000   00001000  00001000  00000000  RWIX
  RAMGS2                0000e000   00001000  00000000  00001000  RWIX
  RAMGS3                0000f000   00001000  00000000  00001000  RWIX
  RAMGS4                00010000   00001000  00000000  00001000  RWIX
  RAMGS5                00011000   00001000  00000000  00001000  RWIX
  RAMGS6                00012000   00001000  000007d8  00000828  RWIX
  RAMGS8                00014000   00001000  00000000  00001000  RWIX
  RAMGS9                00015000   00001000  00000000  00001000  RWIX
  RAMGS10               00016000   00001000  00000000  00001000  RWIX
  RAMGS11               00017000   00001000  00000000  00001000  RWIX
  EMIF1                 00047000   00000800  00000070  00000790  RWIX
  EMIF2                 00047800   00000800  00000070  00000790  RWIX
  CANA_MSG_RAM          00049000   00000800  00000000  00000800  RWIX
  CANB_MSG_RAM          0004b000   00000800  00000000  00000800  RWIX
  FLASHPUMPSEMAPHORE    00050024   00000002  00000002  00000000  RWIX
  DEV_CFG               0005d000   00000180  0000012e  00000052  RWIX
  ANALOG_SUBSYS         0005d180   00000080  00000048  00000038  RWIX
  CLK_CFG               0005d200   00000100  00000032  000000ce  RWIX
  CPU_SYS               0005d300   00000100  00000082  0000007e  RWIX
  ROMPREFETCH           0005e608   00000002  00000002  00000000  RWIX
  DCSM_Z1               0005f000   00000030  00000024  0000000c  RWIX
  DCSM_Z2               0005f040   00000030  00000024  0000000c  RWIX
  DCSM_COMMON           0005f070   00000010  00000008  00000008  RWIX
  MEMCFG                0005f400   00000080  00000080  00000000  RWIX
  EMIF1CONFIG           0005f480   00000020  00000020  00000000  RWIX
  EMIF2CONFIG           0005f4a0   00000020  00000020  00000000  RWIX
  ACCESSPROTECTION      0005f4c0   00000040  00000040  00000000  RWIX
  MEMORYERROR           0005f500   00000040  00000040  00000000  RWIX
  ROMWAITSTATE          0005f540   00000002  00000002  00000000  RWIX
  FLASH0_CTRL           0005f800   00000300  00000182  0000017e  RWIX
  FLASH0_ECC            0005fb00   00000040  00000028  00000018  RWIX
  FLASH1_CTRL           0005fc00   00000300  00000182  0000017e  RWIX
  FLASH1_ECC            0005ff00   00000040  00000028  00000018  RWIX
  DCSM_Z1_OTP           00078000   00000020  00000020  00000000  RWIX
  DCSM_Z2_OTP           00078200   00000020  00000020  00000000  RWIX


SECTION ALLOCATION MAP

 output                                  attributes/
section   page    origin      length       input sections
--------  ----  ----------  ----------   ----------------
.pinit     0    00000122    00000000     UNINITIALIZED

codestart 
*          0    00000000    00000002     
                  00000000    00000002     F2837xS_CodeStartBranch.obj (codestart)

.cinit     0    00000122    00000220     
                  00000122    0000019e     kpj485_mod_ps .obj (.cinit)
                  000002c0    00000038     serial.obj (.cinit)
                  000002f8    00000017     robotis.obj (.cinit)
                  0000030f    0000000d     pwmsetup.obj (.cinit)
                  0000031c    0000000a     rts2800_fpu32.lib : _lock.obj (.cinit)
                  00000326    0000000a                       : exit.obj (.cinit)
                  00000330    00000008     mmc-F2837x.obj (.cinit)
                  00000338    00000004     rts2800_fpu32.lib : memory.obj (.cinit)
                  0000033c    00000004     ustdlib.obj (.cinit)
                  00000340    00000002     --HOLE-- [fill = 0]

ramfuncs   0    00000342    00000004     
                  00000342    00000004     F2837xS_usDelay.obj (ramfuncs)

.text.1    0    00000346    000000b9     
                  00000346    00000088     rts2800_fpu32.lib : fs_div.obj (.text)
                  000003ce    00000028     F2837xS_PieCtrl.obj (.text)
                  000003f6    00000009     rts2800_fpu32.lib : _lock.obj (.text)

Cla1SoftIntRegsFile 
*          1    00000ce0    00000004     DSECT
                  00000ce0    00000004     F2837xS_GlobalVariableDefs.obj (Cla1SoftIntRegsFile)

.text.2    0    00008000    00000800     
                  00008000    00000585     F2837xS_DefaultISR.obj (.text:retain)
                  00008585    0000024b     F2837xS_Gpio.obj (.text)
                  000087d0    00000025     F2837xS_PieVect.obj (.text)
                  000087f5    0000000b     rts2800_fpu32.lib : u_div.obj (.text)

.text.3    0    00008800    000007fd     
                  00008800    0000040a     robotis.obj (.text)
                  00008c0a    00000384     kpj485_mod_ps .obj (.text)
                  00008f8e    00000046     rts2800_fpu32.lib : boot.obj (.text)
                  00008fd4    00000021                       : memcpy_ff.obj (.text)
                  00008ff5    00000008     F2837xS_CodeStartBranch.obj (.text)

.text.4    0    00009000    000007e4     
                  00009000    00000362     serial.obj (.text)
                  00009362    000002d7     pwmsetup.obj (.text:retain)
                  00009639    00000179     pwmsetup.obj (.text)
                  000097b2    00000019     rts2800_fpu32.lib : args_main.obj (.text)
                  000097cb    00000019                       : exit.obj (.text)

.text.5    0    00009800    000007fc     
                  00009800    000002ca     F2837xS_SysCtrl.obj (.text)
                  00009aca    000002b5     serial.obj (.text:retain)
                  00009d7f    0000027d     kpj485_mod_ps .obj (.text:retain)

.text.6    0    0000a000    00000256     
                  0000a000    000000fd     F2837xS_EPwm.obj (.text)
                  0000a0fd    000000dd     F2837xS_Adc.obj (.text)
                  0000a1da    0000007c     F2837xS_CpuTimers.obj (.text)

.text.7    0    0000b000    000007fe     
                  0000b000    00000622     ustdlib.obj (.text)
                  0000b622    000001d7     rts2800_fpu32.lib : memory.obj (.text)
                  0000b7f9    00000005                       : strcpy.obj (.text)

.reset     0    003fffc0    00000002     DSECT
                  003fffc0    00000002     rts2800_fpu32.lib : boot.obj (.reset)

AdcaResultFile 
*          1    00000b00    00000018     UNINITIALIZED
                  00000b00    00000018     F2837xS_GlobalVariableDefs.obj (AdcaResultFile)

AdcbResultFile 
*          1    00000b20    00000018     UNINITIALIZED
                  00000b20    00000018     F2837xS_GlobalVariableDefs.obj (AdcbResultFile)

AdccResultFile 
*          1    00000b40    00000018     UNINITIALIZED
                  00000b40    00000018     F2837xS_GlobalVariableDefs.obj (AdccResultFile)

AdcdResultFile 
*          1    00000b60    00000018     UNINITIALIZED
                  00000b60    00000018     F2837xS_GlobalVariableDefs.obj (AdcdResultFile)

CpuTimer0RegsFile 
*          1    00000c00    00000008     UNINITIALIZED
                  00000c00    00000008     F2837xS_GlobalVariableDefs.obj (CpuTimer0RegsFile)

CpuTimer1RegsFile 
*          1    00000c08    00000008     UNINITIALIZED
                  00000c08    00000008     F2837xS_GlobalVariableDefs.obj (CpuTimer1RegsFile)

CpuTimer2RegsFile 
*          1    00000c10    00000008     UNINITIALIZED
                  00000c10    00000008     F2837xS_GlobalVariableDefs.obj (CpuTimer2RegsFile)

PieCtrlRegsFile 
*          1    00000ce0    0000001a     UNINITIALIZED
                  00000ce0    0000001a     F2837xS_GlobalVariableDefs.obj (PieCtrlRegsFile)

EmuKeyVar 
*          1    00000d00    00000001     UNINITIALIZED
                  00000d00    00000001     F2837xS_GlobalVariableDefs.obj (EmuKeyVar)

PieVectTableFile 
*          1    00000d00    000001c0     UNINITIALIZED
                  00000d00    000001c0     F2837xS_GlobalVariableDefs.obj (PieVectTableFile)

EmuBModeVar 
*          1    00000d01    00000001     UNINITIALIZED
                  00000d01    00000001     F2837xS_GlobalVariableDefs.obj (EmuBModeVar)

FlashCallbackVar 
*          1    00000d02    00000000     UNINITIALIZED

FlashScalingVar 
*          1    00000d02    00000000     UNINITIALIZED

DmaRegsFile 
*          1    00001000    000000e0     UNINITIALIZED
                  00001000    000000e0     F2837xS_GlobalVariableDefs.obj (DmaRegsFile)

Cla1RegsFile 
*          1    00001400    0000003e     UNINITIALIZED
                  00001400    0000003e     F2837xS_GlobalVariableDefs.obj (Cla1RegsFile)

EPwm1RegsFile 
*          1    00004000    00000100     UNINITIALIZED
                  00004000    00000100     F2837xS_GlobalVariableDefs.obj (EPwm1RegsFile)

EPwm2RegsFile 
*          1    00004100    00000100     UNINITIALIZED
                  00004100    00000100     F2837xS_GlobalVariableDefs.obj (EPwm2RegsFile)

EPwm3RegsFile 
*          1    00004200    00000100     UNINITIALIZED
                  00004200    00000100     F2837xS_GlobalVariableDefs.obj (EPwm3RegsFile)

EPwm4RegsFile 
*          1    00004300    00000100     UNINITIALIZED
                  00004300    00000100     F2837xS_GlobalVariableDefs.obj (EPwm4RegsFile)

EPwm5RegsFile 
*          1    00004400    00000100     UNINITIALIZED
                  00004400    00000100     F2837xS_GlobalVariableDefs.obj (EPwm5RegsFile)

EPwm6RegsFile 
*          1    00004500    00000100     UNINITIALIZED
                  00004500    00000100     F2837xS_GlobalVariableDefs.obj (EPwm6RegsFile)

EPwm7RegsFile 
*          1    00004600    00000100     UNINITIALIZED
                  00004600    00000100     F2837xS_GlobalVariableDefs.obj (EPwm7RegsFile)

EPwm8RegsFile 
*          1    00004700    00000100     UNINITIALIZED
                  00004700    00000100     F2837xS_GlobalVariableDefs.obj (EPwm8RegsFile)

EPwm9RegsFile 
*          1    00004800    00000100     UNINITIALIZED
                  00004800    00000100     F2837xS_GlobalVariableDefs.obj (EPwm9RegsFile)

EPwm10RegsFile 
*          1    00004900    00000100     UNINITIALIZED
                  00004900    00000100     F2837xS_GlobalVariableDefs.obj (EPwm10RegsFile)

EPwm11RegsFile 
*          1    00004a00    00000100     UNINITIALIZED
                  00004a00    00000100     F2837xS_GlobalVariableDefs.obj (EPwm11RegsFile)

EPwm12RegsFile 
*          1    00004b00    00000100     UNINITIALIZED
                  00004b00    00000100     F2837xS_GlobalVariableDefs.obj (EPwm12RegsFile)

ECap1RegsFile 
*          1    00005000    00000020     UNINITIALIZED
                  00005000    00000020     F2837xS_GlobalVariableDefs.obj (ECap1RegsFile)

ECap2RegsFile 
*          1    00005020    00000020     UNINITIALIZED
                  00005020    00000020     F2837xS_GlobalVariableDefs.obj (ECap2RegsFile)

ECap3RegsFile 
*          1    00005040    00000020     UNINITIALIZED
                  00005040    00000020     F2837xS_GlobalVariableDefs.obj (ECap3RegsFile)

ECap4RegsFile 
*          1    00005060    00000020     UNINITIALIZED
                  00005060    00000020     F2837xS_GlobalVariableDefs.obj (ECap4RegsFile)

ECap5RegsFile 
*          1    00005080    00000020     UNINITIALIZED
                  00005080    00000020     F2837xS_GlobalVariableDefs.obj (ECap5RegsFile)

ECap6RegsFile 
*          1    000050a0    00000020     UNINITIALIZED
                  000050a0    00000020     F2837xS_GlobalVariableDefs.obj (ECap6RegsFile)

EQep1RegsFile 
*          1    00005100    00000022     UNINITIALIZED
                  00005100    00000022     F2837xS_GlobalVariableDefs.obj (EQep1RegsFile)

EQep2RegsFile 
*          1    00005140    00000022     UNINITIALIZED
                  00005140    00000022     F2837xS_GlobalVariableDefs.obj (EQep2RegsFile)

EQep3RegsFile 
*          1    00005180    00000022     UNINITIALIZED
                  00005180    00000022     F2837xS_GlobalVariableDefs.obj (EQep3RegsFile)

DacaRegsFile 
*          1    00005c00    00000008     UNINITIALIZED
                  00005c00    00000008     F2837xS_GlobalVariableDefs.obj (DacaRegsFile)

DacbRegsFile 
*          1    00005c10    00000008     UNINITIALIZED
                  00005c10    00000008     F2837xS_GlobalVariableDefs.obj (DacbRegsFile)

DaccRegsFile 
*          1    00005c20    00000008     UNINITIALIZED
                  00005c20    00000008     F2837xS_GlobalVariableDefs.obj (DaccRegsFile)

Cmpss1RegsFile 
*          1    00005c80    00000020     UNINITIALIZED
                  00005c80    00000020     F2837xS_GlobalVariableDefs.obj (Cmpss1RegsFile)

Cmpss2RegsFile 
*          1    00005ca0    00000020     UNINITIALIZED
                  00005ca0    00000020     F2837xS_GlobalVariableDefs.obj (Cmpss2RegsFile)

Cmpss3RegsFile 
*          1    00005cc0    00000020     UNINITIALIZED
                  00005cc0    00000020     F2837xS_GlobalVariableDefs.obj (Cmpss3RegsFile)

Cmpss4RegsFile 
*          1    00005ce0    00000020     UNINITIALIZED
                  00005ce0    00000020     F2837xS_GlobalVariableDefs.obj (Cmpss4RegsFile)

Cmpss5RegsFile 
*          1    00005d00    00000020     UNINITIALIZED
                  00005d00    00000020     F2837xS_GlobalVariableDefs.obj (Cmpss5RegsFile)

Cmpss6RegsFile 
*          1    00005d20    00000020     UNINITIALIZED
                  00005d20    00000020     F2837xS_GlobalVariableDefs.obj (Cmpss6RegsFile)

Cmpss7RegsFile 
*          1    00005d40    00000020     UNINITIALIZED
                  00005d40    00000020     F2837xS_GlobalVariableDefs.obj (Cmpss7RegsFile)

Cmpss8RegsFile 
*          1    00005d60    00000020     UNINITIALIZED
                  00005d60    00000020     F2837xS_GlobalVariableDefs.obj (Cmpss8RegsFile)

Sdfm1RegsFile 
*          1    00005e00    00000080     UNINITIALIZED
                  00005e00    00000080     F2837xS_GlobalVariableDefs.obj (Sdfm1RegsFile)

Sdfm2RegsFile 
*          1    00005e80    00000080     UNINITIALIZED
                  00005e80    00000080     F2837xS_GlobalVariableDefs.obj (Sdfm2RegsFile)

McbspaRegsFile 
*          1    00006000    00000024     UNINITIALIZED
                  00006000    00000024     F2837xS_GlobalVariableDefs.obj (McbspaRegsFile)

McbspbRegsFile 
*          1    00006040    00000024     UNINITIALIZED
                  00006040    00000024     F2837xS_GlobalVariableDefs.obj (McbspbRegsFile)

SpiaRegsFile 
*          1    00006100    00000010     UNINITIALIZED
                  00006100    00000010     F2837xS_GlobalVariableDefs.obj (SpiaRegsFile)

SpibRegsFile 
*          1    00006110    00000010     UNINITIALIZED
                  00006110    00000010     F2837xS_GlobalVariableDefs.obj (SpibRegsFile)

SpicRegsFile 
*          1    00006120    00000010     UNINITIALIZED
                  00006120    00000010     F2837xS_GlobalVariableDefs.obj (SpicRegsFile)

UppRegsFile 
*          1    00006200    00000048     UNINITIALIZED
                  00006200    00000048     F2837xS_GlobalVariableDefs.obj (UppRegsFile)

WdRegsFile 
*          1    00007000    0000002b     UNINITIALIZED
                  00007000    0000002b     F2837xS_GlobalVariableDefs.obj (WdRegsFile)

NmiIntruptRegsFile 
*          1    00007060    00000007     UNINITIALIZED
                  00007060    00000007     F2837xS_GlobalVariableDefs.obj (NmiIntruptRegsFile)

XintRegsFile 
*          1    00007070    0000000b     UNINITIALIZED
                  00007070    0000000b     F2837xS_GlobalVariableDefs.obj (XintRegsFile)

SciaRegsFile 
*          1    00007200    00000010     UNINITIALIZED
                  00007200    00000010     F2837xS_GlobalVariableDefs.obj (SciaRegsFile)

ScibRegsFile 
*          1    00007210    00000010     UNINITIALIZED
                  00007210    00000010     F2837xS_GlobalVariableDefs.obj (ScibRegsFile)

ScicRegsFile 
*          1    00007220    00000010     UNINITIALIZED
                  00007220    00000010     F2837xS_GlobalVariableDefs.obj (ScicRegsFile)

ScidRegsFile 
*          1    00007230    00000010     UNINITIALIZED
                  00007230    00000010     F2837xS_GlobalVariableDefs.obj (ScidRegsFile)

I2caRegsFile 
*          1    00007300    00000022     UNINITIALIZED
                  00007300    00000022     F2837xS_GlobalVariableDefs.obj (I2caRegsFile)

I2cbRegsFile 
*          1    00007340    00000022     UNINITIALIZED
                  00007340    00000022     F2837xS_GlobalVariableDefs.obj (I2cbRegsFile)

AdcaRegsFile 
*          1    00007400    00000080     UNINITIALIZED
                  00007400    00000080     F2837xS_GlobalVariableDefs.obj (AdcaRegsFile)

AdcbRegsFile 
*          1    00007480    00000080     UNINITIALIZED
                  00007480    00000080     F2837xS_GlobalVariableDefs.obj (AdcbRegsFile)

AdccRegsFile 
*          1    00007500    00000080     UNINITIALIZED
                  00007500    00000080     F2837xS_GlobalVariableDefs.obj (AdccRegsFile)

AdcdRegsFile 
*          1    00007580    00000080     UNINITIALIZED
                  00007580    00000080     F2837xS_GlobalVariableDefs.obj (AdcdRegsFile)

InputXbarRegsFile 
*          1    00007900    00000020     UNINITIALIZED
                  00007900    00000020     F2837xS_GlobalVariableDefs.obj (InputXbarRegsFile)

XbarRegsFile 
*          1    00007920    00000020     UNINITIALIZED
                  00007920    00000020     F2837xS_GlobalVariableDefs.obj (XbarRegsFile)

SyncSocRegsFile 
*          1    00007940    00000006     UNINITIALIZED
                  00007940    00000006     F2837xS_GlobalVariableDefs.obj (SyncSocRegsFile)

DmaClaSrcSelRegsFile 
*          1    00007980    0000001a     UNINITIALIZED
                  00007980    0000001a     F2837xS_GlobalVariableDefs.obj (DmaClaSrcSelRegsFile)

EPwmXbarRegsFile 
*          1    00007a00    00000040     UNINITIALIZED
                  00007a00    00000040     F2837xS_GlobalVariableDefs.obj (EPwmXbarRegsFile)

OutputXbarRegsFile 
*          1    00007a80    00000040     UNINITIALIZED
                  00007a80    00000040     F2837xS_GlobalVariableDefs.obj (OutputXbarRegsFile)

GpioCtrlRegsFile 
*          1    00007c00    00000180     UNINITIALIZED
                  00007c00    00000180     F2837xS_GlobalVariableDefs.obj (GpioCtrlRegsFile)

GpioDataRegsFile 
*          1    00007f00    00000030     UNINITIALIZED
                  00007f00    00000030     F2837xS_GlobalVariableDefs.obj (GpioDataRegsFile)

.econst    1    0000a800    000002bc     
                  0000a800    000001c0     F2837xS_PieVect.obj (.econst)
                  0000a9c0    0000004d     kpj485_mod_ps .obj (.econst:.string)
                  0000aa0d    00000001     --HOLE-- [fill = 0]
                  0000aa0e    0000004c     pwmsetup.obj (.econst:.string)
                  0000aa5a    00000018     ustdlib.obj (.econst:.string)
                  0000aa72    00000018     ustdlib.obj (.econst:_g_psDaysToMonth)
                  0000aa8a    0000000c     ustdlib.obj (.econst:_g_pfExponents)
                  0000aa96    0000000a     ff.obj (.econst:.string)
                  0000aaa0    00000008     robotis.obj (.econst:_$P$T2$3)
                  0000aaa8    00000004     serial.obj (.econst:.string)
                  0000aaac    00000002     kpj485_mod_ps .obj (.econst:.string:_$P$T0$1)
                  0000aaae    00000002     robotis.obj (.econst:.string:_$P$T0$1)
                  0000aab0    00000002     kpj485_mod_ps .obj (.econst:.string:_$P$T1$2)
                  0000aab2    00000002     robotis.obj (.econst:.string:_$P$T1$2)
                  0000aab4    00000002     kpj485_mod_ps .obj (.econst:.string:_$P$T2$3)
                  0000aab6    00000002     kpj485_mod_ps .obj (.econst:.string:_$P$T3$4)
                  0000aab8    00000002     pwmsetup.obj (.econst)
                  0000aaba    00000002     ustdlib.obj (.econst)

.sysmem    1    0000c000    00001000     UNINITIALIZED
                  0000c000    00000001     rts2800_fpu32.lib : memory.obj (.sysmem)
                  0000c001    00000fff     --HOLE--

.stack     1    0000d000    00001000     UNINITIALIZED
                  0000d000    00001000     --HOLE--

.ebss      1    00012000    000007d8     UNINITIALIZED
                  00012000    00000580     serial.obj (.ebss)
                  00012580    000001e6     kpj485_mod_ps .obj (.ebss)
                  00012766    00000018     F2837xS_CpuTimers.obj (.ebss)
                  0001277e    00000001     ustdlib.obj (.ebss)
                  0001277f    00000001     --HOLE--
                  00012780    00000018     pwmsetup.obj (.ebss)
                  00012798    00000012     cmdline.obj (.ebss)
                  000127aa    00000012     robotis.obj (.ebss)
                  000127bc    00000004     rts2800_fpu32.lib : _lock.obj (.ebss)
                  000127c0    00000008                       : memory.obj (.ebss)
                  000127c8    00000006     ff.obj (.ebss)
                  000127ce    00000005     mmc-F2837x.obj (.ebss)
                  000127d3    00000001     --HOLE--
                  000127d4    00000004     rts2800_fpu32.lib : exit.obj (.ebss)

Emif1RegsFile 
*          1    00047000    00000070     UNINITIALIZED
                  00047000    00000070     F2837xS_GlobalVariableDefs.obj (Emif1RegsFile)

Emif2RegsFile 
*          1    00047800    00000070     UNINITIALIZED
                  00047800    00000070     F2837xS_GlobalVariableDefs.obj (Emif2RegsFile)

FlashPumpSemaphoreRegsFile 
*          1    00050024    00000002     UNINITIALIZED
                  00050024    00000002     F2837xS_GlobalVariableDefs.obj (FlashPumpSemaphoreRegsFile)

DevCfgRegsFile 
*          1    0005d000    0000012e     UNINITIALIZED
                  0005d000    0000012e     F2837xS_GlobalVariableDefs.obj (DevCfgRegsFile)

AnalogSubsysRegsFile 
*          1    0005d180    00000048     UNINITIALIZED
                  0005d180    00000048     F2837xS_GlobalVariableDefs.obj (AnalogSubsysRegsFile)

ClkCfgRegsFile 
*          1    0005d200    00000032     UNINITIALIZED
                  0005d200    00000032     F2837xS_GlobalVariableDefs.obj (ClkCfgRegsFile)

CpuSysRegsFile 
*          1    0005d300    00000082     UNINITIALIZED
                  0005d300    00000082     F2837xS_GlobalVariableDefs.obj (CpuSysRegsFile)

RomPrefetchRegsFile 
*          1    0005e608    00000002     UNINITIALIZED
                  0005e608    00000002     F2837xS_GlobalVariableDefs.obj (RomPrefetchRegsFile)

DcsmZ1RegsFile 
*          1    0005f000    00000024     UNINITIALIZED
                  0005f000    00000024     F2837xS_GlobalVariableDefs.obj (DcsmZ1RegsFile)

DcsmZ2RegsFile 
*          1    0005f040    00000024     UNINITIALIZED
                  0005f040    00000024     F2837xS_GlobalVariableDefs.obj (DcsmZ2RegsFile)

DcsmCommonRegsFile 
*          1    0005f070    00000008     UNINITIALIZED
                  0005f070    00000008     F2837xS_GlobalVariableDefs.obj (DcsmCommonRegsFile)

MemCfgRegsFile 
*          1    0005f400    00000080     UNINITIALIZED
                  0005f400    00000080     F2837xS_GlobalVariableDefs.obj (MemCfgRegsFile)

Emif1ConfigRegsFile 
*          1    0005f480    00000020     UNINITIALIZED
                  0005f480    00000020     F2837xS_GlobalVariableDefs.obj (Emif1ConfigRegsFile)

Emif2ConfigRegsFile 
*          1    0005f4a0    00000020     UNINITIALIZED
                  0005f4a0    00000020     F2837xS_GlobalVariableDefs.obj (Emif2ConfigRegsFile)

AccessProtectionRegsFile 
*          1    0005f4c0    00000040     UNINITIALIZED
                  0005f4c0    00000040     F2837xS_GlobalVariableDefs.obj (AccessProtectionRegsFile)

MemoryErrorRegsFile 
*          1    0005f500    00000040     UNINITIALIZED
                  0005f500    00000040     F2837xS_GlobalVariableDefs.obj (MemoryErrorRegsFile)

RomWaitStateRegsFile 
*          1    0005f540    00000002     UNINITIALIZED
                  0005f540    00000002     F2837xS_GlobalVariableDefs.obj (RomWaitStateRegsFile)

Flash0CtrlRegsFile 
*          1    0005f800    00000182     UNINITIALIZED
                  0005f800    00000182     F2837xS_GlobalVariableDefs.obj (Flash0CtrlRegsFile)

Flash0EccRegsFile 
*          1    0005fb00    00000028     UNINITIALIZED
                  0005fb00    00000028     F2837xS_GlobalVariableDefs.obj (Flash0EccRegsFile)

Flash1CtrlRegsFile 
*          1    0005fc00    00000182     UNINITIALIZED
                  0005fc00    00000182     F2837xS_GlobalVariableDefs.obj (Flash1CtrlRegsFile)

Flash1EccRegsFile 
*          1    0005ff00    00000028     UNINITIALIZED
                  0005ff00    00000028     F2837xS_GlobalVariableDefs.obj (Flash1EccRegsFile)

DcsmZ1OtpFile 
*          1    00078000    00000020     NOLOAD SECTION
                  00078000    00000020     F2837xS_GlobalVariableDefs.obj (DcsmZ1OtpFile)

DcsmZ2OtpFile 
*          1    00078200    00000020     NOLOAD SECTION
                  00078200    00000020     F2837xS_GlobalVariableDefs.obj (DcsmZ2OtpFile)


GLOBAL DATA SYMBOLS: SORTED BY DATA PAGE

address     data page           name
--------    ----------------    ----
00000b00      2c (00000b00)     _AdcaResultRegs
00000b20      2c (00000b00)     _AdcbResultRegs

00000b40      2d (00000b40)     _AdccResultRegs
00000b60      2d (00000b40)     _AdcdResultRegs

00000c00      30 (00000c00)     _CpuTimer0Regs
00000c08      30 (00000c00)     _CpuTimer1Regs
00000c10      30 (00000c00)     _CpuTimer2Regs

00000ce0      33 (00000cc0)     _Cla1SoftIntRegs
00000ce0      33 (00000cc0)     _PieCtrlRegs

00000d00      34 (00000d00)     _EmuKey
00000d00      34 (00000d00)     _PieVectTable
00000d01      34 (00000d00)     _EmuBMode

00001000      40 (00001000)     _DmaRegs

00001400      50 (00001400)     _Cla1Regs

00004000     100 (00004000)     _EPwm1Regs

00004100     104 (00004100)     _EPwm2Regs

00004200     108 (00004200)     _EPwm3Regs

00004300     10c (00004300)     _EPwm4Regs

00004400     110 (00004400)     _EPwm5Regs

00004500     114 (00004500)     _EPwm6Regs

00004600     118 (00004600)     _EPwm7Regs

00004700     11c (00004700)     _EPwm8Regs

00004800     120 (00004800)     _EPwm9Regs

00004900     124 (00004900)     _EPwm10Regs

00004a00     128 (00004a00)     _EPwm11Regs

00004b00     12c (00004b00)     _EPwm12Regs

00005000     140 (00005000)     _ECap1Regs
00005020     140 (00005000)     _ECap2Regs

00005040     141 (00005040)     _ECap3Regs
00005060     141 (00005040)     _ECap4Regs

00005080     142 (00005080)     _ECap5Regs
000050a0     142 (00005080)     _ECap6Regs

00005100     144 (00005100)     _EQep1Regs

00005140     145 (00005140)     _EQep2Regs

00005180     146 (00005180)     _EQep3Regs

00005c00     170 (00005c00)     _DacaRegs
00005c10     170 (00005c00)     _DacbRegs
00005c20     170 (00005c00)     _DaccRegs

00005c80     172 (00005c80)     _Cmpss1Regs
00005ca0     172 (00005c80)     _Cmpss2Regs

00005cc0     173 (00005cc0)     _Cmpss3Regs
00005ce0     173 (00005cc0)     _Cmpss4Regs

00005d00     174 (00005d00)     _Cmpss5Regs
00005d20     174 (00005d00)     _Cmpss6Regs

00005d40     175 (00005d40)     _Cmpss7Regs
00005d60     175 (00005d40)     _Cmpss8Regs

00005e00     178 (00005e00)     _Sdfm1Regs

00005e80     17a (00005e80)     _Sdfm2Regs

00006000     180 (00006000)     _McbspaRegs

00006040     181 (00006040)     _McbspbRegs

00006100     184 (00006100)     _SpiaRegs
00006110     184 (00006100)     _SpibRegs
00006120     184 (00006100)     _SpicRegs

00006200     188 (00006200)     _UppRegs

00007000     1c0 (00007000)     _WdRegs

00007060     1c1 (00007040)     _NmiIntruptRegs
00007070     1c1 (00007040)     _XintRegs

00007200     1c8 (00007200)     _SciaRegs
00007210     1c8 (00007200)     _ScibRegs
00007220     1c8 (00007200)     _ScicRegs
00007230     1c8 (00007200)     _ScidRegs

00007300     1cc (00007300)     _I2caRegs

00007340     1cd (00007340)     _I2cbRegs

00007400     1d0 (00007400)     _AdcaRegs

00007480     1d2 (00007480)     _AdcbRegs

00007500     1d4 (00007500)     _AdccRegs

00007580     1d6 (00007580)     _AdcdRegs

00007900     1e4 (00007900)     _InputXbarRegs
00007920     1e4 (00007900)     _XbarRegs

00007940     1e5 (00007940)     _SyncSocRegs

00007980     1e6 (00007980)     _DmaClaSrcSelRegs

00007a00     1e8 (00007a00)     _EPwmXbarRegs

00007a80     1ea (00007a80)     _OutputXbarRegs

00007c00     1f0 (00007c00)     _GpioCtrlRegs

00007f00     1fc (00007f00)     _GpioDataRegs

0000a800     2a0 (0000a800)     _PieVectTableInit

0000aab8     2aa (0000aa80)     _desv

0000c000     300 (0000c000)     __sys_memory

0000d000     340 (0000d000)     __stack

00012000     480 (00012000)     _wfing
00012001     480 (00012000)     _wfrcvnum
00012002     480 (00012000)     _lengscib
00012003     480 (00012000)     _ATcnt
00012004     480 (00012000)     _ecing
00012005     480 (00012000)     _ATcnt2
00012006     480 (00012000)     _SCI_PRD
00012007     480 (00012000)     _SCI_PRDa
00012008     480 (00012000)     _b_ui16UARTRxWriteIndex
00012009     480 (00012000)     _bufa
0001200a     480 (00012000)     _bufb
0001200b     480 (00012000)     _b_ui16UARTRxReadIndex
0001200e     480 (00012000)     _rdata
0001200f     480 (00012000)     _rdata_pointA
00012010     480 (00012000)     _SCI_PRDb
00012011     480 (00012000)     _atxing
00012012     480 (00012000)     _graphdata
00012013     480 (00012000)     _a_ui16UARTTxReadIndex
00012014     480 (00012000)     _a_ui16UARTRxWriteIndex
00012015     480 (00012000)     _a_ui16UARTTxWriteIndex
00012016     480 (00012000)     _b_ui16UARTTxReadIndex
00012017     480 (00012000)     _b_ui16UARTTxWriteIndex
00012018     480 (00012000)     _a_ui16UARTRxReadIndex
0001201a     480 (00012000)     _CPU_FREQ
0001201c     480 (00012000)     _dx_baud
0001201e     480 (00012000)     _SCI_FREQa
00012020     480 (00012000)     _SCI_FREQb
00012022     480 (00012000)     _SCI_FREQ
00012024     480 (00012000)     _trdelay
00012026     480 (00012000)     _LSPCLK_FREQ
00012028     480 (00012000)     _rdataA

00012040     481 (00012040)     _wizfi
00012055     481 (00012040)     _sdataA

00012080     482 (00012080)     _gps

000120c0     483 (000120c0)     _ATtxmsg

00012100     484 (00012100)     _ATrxmsg

00012140     485 (00012140)     _imu

00012180     486 (00012180)     _b_pcUARTTxBuffer

00012280     48a (00012280)     _b_pcUARTRxBuffer

00012380     48e (00012380)     _a_pcUARTRxBuffer

00012480     492 (00012480)     _a_pcUARTTxBuffer

00012580     496 (00012580)     _autoloop
00012581     496 (00012580)     _done
00012582     496 (00012580)     _rcvid
00012583     496 (00012580)     _j
00012584     496 (00012580)     _ATmode
00012585     496 (00012580)     _cmd
00012586     496 (00012580)     _k
00012587     496 (00012580)     _test
00012588     496 (00012580)     _rcvnum
00012589     496 (00012580)     _rcvstart
0001258a     496 (00012580)     _rcvsuc
0001258b     496 (00012580)     _sleng
0001258c     496 (00012580)     _bufferFull
0001258d     496 (00012580)     _resultsIndex
0001258e     496 (00012580)     _testcnt
0001258f     496 (00012580)     _mt
00012590     496 (00012580)     _find
00012591     496 (00012580)     _err
00012592     496 (00012580)     _uid
00012593     496 (00012580)     _toen
00012594     496 (00012580)     _rcvflag
00012595     496 (00012580)     _ledonoff
00012596     496 (00012580)     _atpntflag
00012598     496 (00012580)     _curtime
0001259a     496 (00012580)     _excutetime
0001259c     496 (00012580)     _ATmsg2
0001259e     496 (00012580)     _temp
000125a0     496 (00012580)     _prevtime
000125a2     496 (00012580)     _ATmsg
000125a4     496 (00012580)     _temp2
000125a6     496 (00012580)     _endtime
000125a8     496 (00012580)     _t
000125aa     496 (00012580)     _degknee
000125ac     496 (00012580)     _degpel
000125ae     496 (00012580)     _pi
000125b0     496 (00012580)     _intogo
000125b2     496 (00012580)     _intovel
000125b4     496 (00012580)     _degtogo
000125b6     496 (00012580)     _itoabuf
000125bb     496 (00012580)     _p

000125c0     497 (000125c0)     _itoabuf2
000125c5     497 (000125c0)     _posint
000125ce     497 (000125c0)     _traj
000125d6     497 (000125c0)     _p2
000125de     497 (000125c0)     _oset2
000125e6     497 (000125c0)     _oset
000125ee     497 (000125c0)     _dir
000125f6     497 (000125c0)     _goalpos2

00012600     498 (00012600)     _goalpos
00012608     498 (00012600)     _initpos
00012610     498 (00012600)     _obs
0001261a     498 (00012600)     _epwm2_info
00012624     498 (00012600)     _epwm1_info
0001262e     498 (00012600)     _epwm4_info

00012640     499 (00012640)     _pos
00012650     499 (00012640)     _posavg
00012660     499 (00012640)     _AdcaResults

00012680     49a (00012680)     _posk

00012700     49c (00012700)     _posp

00012766     49d (00012740)     _CpuTimer1
0001276e     49d (00012740)     _CpuTimer2
00012776     49d (00012740)     _CpuTimer0

00012780     49e (00012780)     _dir2
00012781     49e (00012780)     _cmd2
00012782     49e (00012780)     _enal
00012783     49e (00012780)     _enar
00012784     49e (00012780)     _duty16
00012785     49e (00012780)     _period
00012786     49e (00012780)     _numout
00012787     49e (00012780)     _dir1
00012788     49e (00012780)     _ena
0001278a     49e (00012780)     _duty
0001278c     49e (00012780)     _pwmtimer1
0001278e     49e (00012780)     _btxbuf
00012790     49e (00012780)     _cmdbuf2
00012792     49e (00012780)     _tempa
00012794     49e (00012780)     _cmdbuf
00012796     49e (00012780)     _printbuf
000127aa     49e (00012780)     _releng
000127ac     49e (00012780)     _gearrt
000127bc     49e (00012780)     __unlock
000127be     49e (00012780)     __lock

000127d4     49f (000127c0)     ___TI_cleanup_ptr
000127d6     49f (000127c0)     ___TI_dtors_ptr

00047000    11c0 (00047000)     _Emif1Regs

00047800    11e0 (00047800)     _Emif2Regs

00050024    1400 (00050000)     _FlashPumpSemaphoreRegs

0005d000    1740 (0005d000)     _DevCfgRegs

0005d180    1746 (0005d180)     _AnalogSubsysRegs

0005d200    1748 (0005d200)     _ClkCfgRegs

0005d300    174c (0005d300)     _CpuSysRegs

0005e608    1798 (0005e600)     _RomPrefetchRegs

0005f000    17c0 (0005f000)     _DcsmZ1Regs

0005f040    17c1 (0005f040)     _DcsmZ2Regs
0005f070    17c1 (0005f040)     _DcsmCommonRegs

0005f400    17d0 (0005f400)     _MemCfgRegs

0005f480    17d2 (0005f480)     _Emif1ConfigRegs
0005f4a0    17d2 (0005f480)     _Emif2ConfigRegs

0005f4c0    17d3 (0005f4c0)     _AccessProtectionRegs

0005f500    17d4 (0005f500)     _MemoryErrorRegs

0005f540    17d5 (0005f540)     _RomWaitStateRegs

0005f800    17e0 (0005f800)     _Flash0CtrlRegs

0005fb00    17ec (0005fb00)     _Flash0EccRegs

0005fc00    17f0 (0005fc00)     _Flash1CtrlRegs

0005ff00    17fc (0005ff00)     _Flash1EccRegs

00078000    1e00 (00078000)     _DcsmZ1Otp

00078200    1e08 (00078200)     _DcsmZ2Otp


GLOBAL SYMBOLS: SORTED ALPHABETICALLY BY Name 

address    name
--------   ----
ffffffff   .text
000097cb   C$$EXIT
00000346   FS$$DIV
000087f5   U$$DIV
000087fa   U$$MOD
000080be   _ADCA1_ISR
0000833e   _ADCA2_ISR
00008348   _ADCA3_ISR
00008352   _ADCA4_ISR
00008334   _ADCA_EVT_ISR
000080c8   _ADCB1_ISR
00008366   _ADCB2_ISR
00008370   _ADCB3_ISR
0000837a   _ADCB4_ISR
0000835c   _ADCB_EVT_ISR
000080d2   _ADCC1_ISR
000084ce   _ADCC2_ISR
000084d8   _ADCC3_ISR
000084e2   _ADCC4_ISR
000084c4   _ADCC_EVT_ISR
000080f0   _ADCD1_ISR
000084f6   _ADCD2_ISR
00008500   _ADCD3_ISR
0000850a   _ADCD4_ISR
000084ec   _ADCD_EVT_ISR
00012003   _ATcnt
00012005   _ATcnt2
00012584   _ATmode
000125a2   _ATmsg
0001259c   _ATmsg2
00008f2e   _ATpnt
00012100   _ATrxmsg
000120c0   _ATtxmsg
00008546   _AUX_PLL_SLIP_ISR
0005f4c0   _AccessProtectionRegs
0000a0fd   _AdcSetMode
00007400   _AdcaRegs
00000b00   _AdcaResultRegs
00012660   _AdcaResults
00007480   _AdcbRegs
00000b20   _AdcbResultRegs
00007500   _AdccRegs
00000b40   _AdccResultRegs
00007580   _AdcdRegs
00000b60   _AdcdResultRegs
0005d180   _AnalogSubsysRegs
00009a87   _AuxAuxClkSel
00009a71   _AuxIntOsc2Sel
00009a7b   _AuxXtalOscSel
0000830c   _CANA0_ISR
00008316   _CANA1_ISR
00008320   _CANB0_ISR
0000832a   _CANB1_ISR
00008384   _CLA1_1_ISR
0000838e   _CLA1_2_ISR
00008398   _CLA1_3_ISR
000083a2   _CLA1_4_ISR
000083ac   _CLA1_5_ISR
000083b6   _CLA1_6_ISR
000083c0   _CLA1_7_ISR
000083ca   _CLA1_8_ISR
00008550   _CLA_OVERFLOW_ISR
0000855a   _CLA_UNDERFLOW_ISR
0001201a   _CPU_FREQ
0000a1a0   _CalAdcINL
00001400   _Cla1Regs
00000ce0   _Cla1SoftIntRegs
0005d200   _ClkCfgRegs
00005c80   _Cmpss1Regs
00005ca0   _Cmpss2Regs
00005cc0   _Cmpss3Regs
00005ce0   _Cmpss4Regs
00005d00   _Cmpss5Regs
00005d20   _Cmpss6Regs
00005d40   _Cmpss7Regs
00005d60   _Cmpss8Regs
0000a21b   _ConfigCpuTimer
00008d53   _ConfigureADC
00008da0   _ConfigureGPIO
0005d300   _CpuSysRegs
00012776   _CpuTimer0
00000c00   _CpuTimer0Regs
00012766   _CpuTimer1
00000c08   _CpuTimer1Regs
0001276e   _CpuTimer2
00000c10   _CpuTimer2Regs
00009a30   _CsmUnlock
00008014   _DATALOG_ISR
00008258   _DMA_CH1_ISR
00008262   _DMA_CH2_ISR
0000826c   _DMA_CH3_ISR
00008276   _DMA_CH4_ISR
00008280   _DMA_CH5_ISR
0000828a   _DMA_CH6_ISR
00005c00   _DacaRegs
00005c10   _DacbRegs
00005c20   _DaccRegs
0005f070   _DcsmCommonRegs
00078000   _DcsmZ1Otp
0005f000   _DcsmZ1Regs
00078200   _DcsmZ2Otp
0005f040   _DcsmZ2Regs
0005d000   _DevCfgRegs
00009903   _DisableDog
000098b5   _DisablePeripheralClocks
00007980   _DmaClaSrcSelRegs
00001000   _DmaRegs
000081ae   _ECAP1_ISR
000081b8   _ECAP2_ISR
000081c2   _ECAP3_ISR
000081cc   _ECAP4_ISR
000081d6   _ECAP5_ISR
000081e0   _ECAP6_ISR
00005000   _ECap1Regs
00005020   _ECap2Regs
00005040   _ECap3Regs
00005060   _ECap4Regs
00005080   _ECap5Regs
000050a0   _ECap6Regs
00008514   _EMIF_ERROR_ISR
0000856e   _EMPTY_ISR
00008028   _EMU_ISR
0000846a   _EPWM10_ISR
00008442   _EPWM10_TZ_ISR
00008474   _EPWM11_ISR
0000844c   _EPWM11_TZ_ISR
0000847e   _EPWM12_ISR
00008456   _EPWM12_TZ_ISR
0000815e   _EPWM1_ISR
0000810e   _EPWM1_TZ_ISR
00008168   _EPWM2_ISR
00008118   _EPWM2_TZ_ISR
00008172   _EPWM3_ISR
00008122   _EPWM3_TZ_ISR
0000817c   _EPWM4_ISR
0000812c   _EPWM4_TZ_ISR
00008186   _EPWM5_ISR
00008136   _EPWM5_TZ_ISR
00008190   _EPWM6_ISR
00008140   _EPWM6_TZ_ISR
0000819a   _EPWM7_ISR
0000814a   _EPWM7_TZ_ISR
000081a4   _EPWM8_ISR
00008154   _EPWM8_TZ_ISR
00008460   _EPWM9_ISR
00008438   _EPWM9_TZ_ISR
00004900   _EPwm10Regs
00004a00   _EPwm11Regs
00004b00   _EPwm12Regs
00004000   _EPwm1Regs
00004100   _EPwm2Regs
00004200   _EPwm3Regs
00004300   _EPwm4Regs
00004400   _EPwm5Regs
00004500   _EPwm6Regs
00004600   _EPwm7Regs
00004700   _EPwm8Regs
00004800   _EPwm9Regs
00007a00   _EPwmXbarRegs
000081ea   _EQEP1_ISR
000081f4   _EQEP2_ISR
000081fe   _EQEP3_ISR
00005100   _EQep1Regs
00005140   _EQep2Regs
00005180   _EQep3Regs
0005f480   _Emif1ConfigRegs
00047000   _Emif1Regs
0005f4a0   _Emif2ConfigRegs
00047800   _Emif2Regs
00000d01   _EmuBMode
00000d00   _EmuKey
000003ed   _EnableInterrupts
00000342   _F28x_usDelay
00008528   _FLASH_CORRECTABLE_ERROR_ISR
000083fc   _FPU_OVERFLOW_ISR
00008406   _FPU_UNDERFLOW_ISR
0005f800   _Flash0CtrlRegs
0005fb00   _Flash0EccRegs
0005fc00   _Flash1CtrlRegs
0005ff00   _Flash1EccRegs
00050024   _FlashPumpSemaphoreRegs
00008784   _GPIO_EnableUnbondedIOPullups
0000875f   _GPIO_EnableUnbondedIOPullupsFor100Pin
00008746   _GPIO_EnableUnbondedIOPullupsFor176Pin
0000879a   _GPIO_ReadPin
000086ec   _GPIO_SetupLock
000085c5   _GPIO_SetupPinMux
00008656   _GPIO_SetupPinOptions
00008714   _GPIO_SetupXINT1Gpio
0000871e   _GPIO_SetupXINT2Gpio
00008728   _GPIO_SetupXINT3Gpio
00008732   _GPIO_SetupXINT4Gpio
0000873c   _GPIO_SetupXINT5Gpio
000087b1   _GPIO_WritePin
00007c00   _GpioCtrlRegs
00007f00   _GpioDataRegs
00009aa5   _HALT
00009ab6   _HIB
0000829e   _I2CA_FIFO_ISR
00008294   _I2CA_ISR
000082b2   _I2CB_FIFO_ISR
000082a8   _I2CB_ISR
00007300   _I2caRegs
00007340   _I2cbRegs
00009a91   _IDLE
0000803c   _ILLEGAL_ISR
00008410   _IPC0_ISR
0000841a   _IPC1_ISR
00008424   _IPC2_ISR
0000842e   _IPC3_ISR
0000999a   _InitAuxPll
0000a1da   _InitCpuTimers
0000a0c3   _InitEPwm10Gpio
0000a0d6   _InitEPwm11Gpio
0000a0ea   _InitEPwm12Gpio
00009639   _InitEPwm1Example
0000a019   _InitEPwm1Gpio
00009693   _InitEPwm2Example
0000a02b   _InitEPwm2Gpio
0000a03d   _InitEPwm3Gpio
000096ed   _InitEPwm4Example
0000a051   _InitEPwm4Gpio
0000a065   _InitEPwm5Gpio
0000a077   _InitEPwm6Gpio
0000974a   _InitEPwm7Example
0000a089   _InitEPwm7Gpio
0000a09d   _InitEPwm8Gpio
0000a0b1   _InitEPwm9Gpio
0000a000   _InitEPwmGpio
000097a1   _InitEPwmvariable
00008585   _InitGpio
00009831   _InitPeripheralClocks
000003ce   _InitPieCtrl
000087d0   _InitPieVectTable
00009800   _InitSysCtrl
00009911   _InitSysPll
00007900   _InputXbarRegs
00009209   _IsBufferEmpty
000091f1   _IsBufferFull
00012026   _LSPCLK_FREQ
00008230   _MCBSPA_RX_ISR
0000823a   _MCBSPA_TX_ISR
00008244   _MCBSPB_RX_ISR
0000824e   _MCBSPB_TX_ISR
00006000   _McbspaRegs
00006040   _McbspbRegs
0005f400   _MemCfgRegs
0005f500   _MemoryErrorRegs
00008032   _NMI_ISR
0000857b   _NOTUSED_ISR
00007060   _NmiIntruptRegs
00007a80   _OutputXbarRegs
00008564   _PIE_RESERVED_ISR
00000ce0   _PieCtrlRegs
00000d00   _PieVectTable
0000a800   _PieVectTableInit
00008532   _RAM_ACCESS_VIOLATION_ISR
0000851e   _RAM_CORRECTABLE_ERROR_ISR
0000801e   _RTOS_ISR
000098eb   _ReleaseFlashPump
0005e608   _RomPrefetchRegs
0005f540   _RomWaitStateRegs
000082e4   _SCIA_RX_ISR
000082ee   _SCIA_TX_ISR
000082f8   _SCIB_RX_ISR
00008302   _SCIB_TX_ISR
000082bc   _SCIC_RX_ISR
000082c6   _SCIC_TX_ISR
000082d0   _SCID_RX_ISR
000082da   _SCID_TX_ISR
00012022   _SCI_FREQ
0001201e   _SCI_FREQa
00012020   _SCI_FREQb
00012006   _SCI_PRD
00012007   _SCI_PRDa
00012010   _SCI_PRDb
00008488   _SD1_ISR
00008492   _SD2_ISR
00008208   _SPIA_RX_ISR
00008212   _SPIA_TX_ISR
0000821c   _SPIB_RX_ISR
00008226   _SPIB_TX_ISR
0000849c   _SPIC_RX_ISR
000084a6   _SPIC_TX_ISR
00009a9a   _STANDBY
0000853c   _SYS_PLL_SLIP_ISR
00007200   _SciaRegs
00007210   _ScibRegs
00007220   _ScicRegs
00007230   _ScidRegs
00005e00   _Sdfm1Regs
00005e80   _Sdfm2Regs
000098cd   _SeizeFlashPump_Bank0
000098dc   _SeizeFlashPump_Bank1
000098f5   _ServiceDog
00008d6e   _SetupADCEpwm
00006100   _SpiaRegs
00006110   _SpibRegs
00006120   _SpicRegs
00007940   _SyncSocRegs
00009a51   _SysIntOsc1Sel
00009a5b   _SysIntOsc2Sel
00009a65   _SysXtalOscSel
000080fa   _TIMER0_ISR
00008000   _TIMER1_ISR
0000800a   _TIMER2_ISR
000091ad   _UARTIntclear
0000930b   _UARTPeek
000092d7   _UARTgetc
0000927b   _UARTgets
000084b0   _UPPA_ISR
000084ba   _USBA_ISR
000080a0   _USER10_ISR
000080aa   _USER11_ISR
000080b4   _USER12_ISR
00008046   _USER1_ISR
00008050   _USER2_ISR
0000805a   _USER3_ISR
00008064   _USER4_ISR
0000806e   _USER5_ISR
00008078   _USER6_ISR
00008082   _USER7_ISR
0000808c   _USER8_ISR
00008096   _USER9_ISR
00006200   _UppRegs
000083f2   _VCU_ISR
00008104   _WAKE_ISR
00007000   _WdRegs
000080dc   _XINT1_ISR
000080e6   _XINT2_ISR
000083d4   _XINT3_ISR
000083de   _XINT4_ISR
000083e8   _XINT5_ISR
00007920   _XbarRegs
00007070   _XintRegs
0000e000   __STACK_END
00001000   __STACK_SIZE
00001000   __SYSMEM_SIZE
00000001   __TI_args_main
000127d4   ___TI_cleanup_ptr
000127d6   ___TI_dtors_ptr
ffffffff   ___binit__
ffffffff   ___c_args__
00000122   ___cinit__
ffffffff   ___etext__
00008fd4   ___memcpy_ff
ffffffff   ___pinit__
ffffffff   ___text__
000097b2   __args_main
000127be   __lock
000003fe   __nop
000003fa   __register_lock
000003f6   __register_unlock
0000d000   __stack
0000c000   __sys_memory
000127bc   __unlock
00012380   _a_pcUARTRxBuffer
00012480   _a_pcUARTTxBuffer
00012018   _a_ui16UARTRxReadIndex
00012014   _a_ui16UARTRxWriteIndex
00012013   _a_ui16UARTTxReadIndex
00012015   _a_ui16UARTTxWriteIndex
000097cb   _abort
00009f35   _adca1_isr
00012596   _atpntflag
00012011   _atxing
00012580   _autoloop
00012280   _b_pcUARTRxBuffer
00012180   _b_pcUARTTxBuffer
0001200b   _b_ui16UARTRxReadIndex
00012008   _b_ui16UARTRxWriteIndex
00012016   _b_ui16UARTTxReadIndex
00012017   _b_ui16UARTTxWriteIndex
0001278e   _btxbuf
00012009   _bufa
0001200a   _bufb
0001258c   _bufferFull
000088bf   _bulkreaddx
00008f8e   _c_int00
0000b7e1   _calloc
0000b7df   _chkheap
00012585   _cmd
00012781   _cmd2
00012794   _cmdbuf
00012790   _cmdbuf2
00009d7f   _cpu_timer0_isr
00009f76   _cpu_timer1_isr
00012598   _curtime
000125aa   _degknee
000125ac   _degpel
000125b4   _degtogo
0000aab8   _desv
000125ee   _dir
00012787   _dir1
00012780   _dir2
00012581   _done
0001278a   _duty
00012784   _duty16
0001201c   _dx_baud
00012004   _ecing
00012788   _ena
00012782   _enal
00012783   _enar
000125a6   _endtime
00012624   _epwm1_info
00009362   _epwm1_isr
0001261a   _epwm2_info
000093f1   _epwm2_isr
0001262e   _epwm4_info
00009480   _epwm4_isr
00009495   _epwm7_isr
00012591   _err
00008800   _error
0001259a   _excutetime
000097cd   _exit
00012590   _find
0000b622   _free
0000b7c1   _free_memory
000127ac   _gearrt
00012600   _goalpos
000125f6   _goalpos2
00012080   _gps
00012012   _graphdata
00012140   _imu
00012608   _initpos
000125b0   _intogo
000125b2   _intovel
00008f6c   _itoa
000125b6   _itoabuf
000125c0   _itoabuf2
00012583   _j
00012586   _k
0000893b   _led
00012595   _ledonoff
00012002   _lengscib
00008c0a   _main
0000b68b   _malloc
0000b79f   _max_free
0000b665   _minit
00008d9a   _motorstop
0001258f   _mt
000089dd   _mv_p
00008a1d   _mv_s
00008967   _mvf
00012786   _numout
00012610   _obs
000125e6   _oset
000125de   _oset2
000125bb   _p
000125d6   _p2
00012785   _period
000125ae   _pi
0000887f   _ping
00012640   _pos
00012650   _posavg
00008e2a   _posinit
000125c5   _posint
00012680   _posk
00012700   _posp
000125a0   _prevtime
00012796   _printbuf
0001278c   _pwmtimer1
00012594   _rcvflag
00012582   _rcvid
00012588   _rcvnum
00012589   _rcvstart
0001258a   _rcvsuc
0001200e   _rdata
00012028   _rdataA
0001200f   _rdata_pointA
00008802   _readdx
0000b6ea   _realloc
000127aa   _releng
0000889f   _reset
0001258d   _resultsIndex
00008951   _retfowr
00009b58   _sciaRxFifoIsr
00009aca   _sciaTxFifoIsr
00009000   _scia_fifo_init
000090b6   _scia_msg
00009110   _scia_rcv
000090ad   _scia_xmit
00009bd5   _scibRxFifoIsr
00009b06   _scibTxFifoIsr
0000903a   _scib_fifo_init
00009121   _scib_msg
00009169   _scib_rcv
00009118   _scib_xmit
00009c53   _scicRxFifoIsr
00009b43   _scicTxFifoIsr
00009061   _scic_fifo_init
0000917e   _scic_msg
0000919b   _scic_rcv
00009171   _scic_xmit
00012055   _sdataA
00008833   _senddx
00008adb   _setccwlimit
00008ab6   _setcwlimit
00008a91   _setoffset
0001258b   _sleng
0000b7f9   _strcpy
00008b00   _syncmv
000125a8   _t
0001259e   _temp
000125a4   _temp2
00012792   _tempa
00012587   _test
0001258e   _testcnt
00008e29   _testprint
00012593   _toen
000125ce   _traj
00012024   _trdelay
00012592   _uid
0000b26e   _ulocaltime
0000b365   _umktime
0000b618   _urand
0000b25e   _usnprintf
0000b24d   _usprintf
0000b611   _usrand
0000b5d2   _ustrcasecmp
0000b606   _ustrcmp
0000b565   _ustrlen
0000b58f   _ustrncasecmp
0000b5dd   _ustrncmp
0000b000   _ustrncpy
0000b575   _ustrstr
0000b437   _ustrtof
0000b39e   _ustrtoul
0000b02e   _uvsnprintf
00012000   _wfing
00012001   _wfrcvnum
00012040   _wizfi
ffffffff   binit
00000122   cinit
00000000   code_start
ffffffff   etext
ffffffff   pinit


GLOBAL SYMBOLS: SORTED BY Symbol Address 

address    name
--------   ----
00000000   code_start
00000001   __TI_args_main
00000122   ___cinit__
00000122   cinit
00000342   _F28x_usDelay
00000346   FS$$DIV
000003ce   _InitPieCtrl
000003ed   _EnableInterrupts
000003f6   __register_unlock
000003fa   __register_lock
000003fe   __nop
00000b00   _AdcaResultRegs
00000b20   _AdcbResultRegs
00000b40   _AdccResultRegs
00000b60   _AdcdResultRegs
00000c00   _CpuTimer0Regs
00000c08   _CpuTimer1Regs
00000c10   _CpuTimer2Regs
00000ce0   _Cla1SoftIntRegs
00000ce0   _PieCtrlRegs
00000d00   _EmuKey
00000d00   _PieVectTable
00000d01   _EmuBMode
00001000   _DmaRegs
00001000   __STACK_SIZE
00001000   __SYSMEM_SIZE
00001400   _Cla1Regs
00004000   _EPwm1Regs
00004100   _EPwm2Regs
00004200   _EPwm3Regs
00004300   _EPwm4Regs
00004400   _EPwm5Regs
00004500   _EPwm6Regs
00004600   _EPwm7Regs
00004700   _EPwm8Regs
00004800   _EPwm9Regs
00004900   _EPwm10Regs
00004a00   _EPwm11Regs
00004b00   _EPwm12Regs
00005000   _ECap1Regs
00005020   _ECap2Regs
00005040   _ECap3Regs
00005060   _ECap4Regs
00005080   _ECap5Regs
000050a0   _ECap6Regs
00005100   _EQep1Regs
00005140   _EQep2Regs
00005180   _EQep3Regs
00005c00   _DacaRegs
00005c10   _DacbRegs
00005c20   _DaccRegs
00005c80   _Cmpss1Regs
00005ca0   _Cmpss2Regs
00005cc0   _Cmpss3Regs
00005ce0   _Cmpss4Regs
00005d00   _Cmpss5Regs
00005d20   _Cmpss6Regs
00005d40   _Cmpss7Regs
00005d60   _Cmpss8Regs
00005e00   _Sdfm1Regs
00005e80   _Sdfm2Regs
00006000   _McbspaRegs
00006040   _McbspbRegs
00006100   _SpiaRegs
00006110   _SpibRegs
00006120   _SpicRegs
00006200   _UppRegs
00007000   _WdRegs
00007060   _NmiIntruptRegs
00007070   _XintRegs
00007200   _SciaRegs
00007210   _ScibRegs
00007220   _ScicRegs
00007230   _ScidRegs
00007300   _I2caRegs
00007340   _I2cbRegs
00007400   _AdcaRegs
00007480   _AdcbRegs
00007500   _AdccRegs
00007580   _AdcdRegs
00007900   _InputXbarRegs
00007920   _XbarRegs
00007940   _SyncSocRegs
00007980   _DmaClaSrcSelRegs
00007a00   _EPwmXbarRegs
00007a80   _OutputXbarRegs
00007c00   _GpioCtrlRegs
00007f00   _GpioDataRegs
00008000   _TIMER1_ISR
0000800a   _TIMER2_ISR
00008014   _DATALOG_ISR
0000801e   _RTOS_ISR
00008028   _EMU_ISR
00008032   _NMI_ISR
0000803c   _ILLEGAL_ISR
00008046   _USER1_ISR
00008050   _USER2_ISR
0000805a   _USER3_ISR
00008064   _USER4_ISR
0000806e   _USER5_ISR
00008078   _USER6_ISR
00008082   _USER7_ISR
0000808c   _USER8_ISR
00008096   _USER9_ISR
000080a0   _USER10_ISR
000080aa   _USER11_ISR
000080b4   _USER12_ISR
000080be   _ADCA1_ISR
000080c8   _ADCB1_ISR
000080d2   _ADCC1_ISR
000080dc   _XINT1_ISR
000080e6   _XINT2_ISR
000080f0   _ADCD1_ISR
000080fa   _TIMER0_ISR
00008104   _WAKE_ISR
0000810e   _EPWM1_TZ_ISR
00008118   _EPWM2_TZ_ISR
00008122   _EPWM3_TZ_ISR
0000812c   _EPWM4_TZ_ISR
00008136   _EPWM5_TZ_ISR
00008140   _EPWM6_TZ_ISR
0000814a   _EPWM7_TZ_ISR
00008154   _EPWM8_TZ_ISR
0000815e   _EPWM1_ISR
00008168   _EPWM2_ISR
00008172   _EPWM3_ISR
0000817c   _EPWM4_ISR
00008186   _EPWM5_ISR
00008190   _EPWM6_ISR
0000819a   _EPWM7_ISR
000081a4   _EPWM8_ISR
000081ae   _ECAP1_ISR
000081b8   _ECAP2_ISR
000081c2   _ECAP3_ISR
000081cc   _ECAP4_ISR
000081d6   _ECAP5_ISR
000081e0   _ECAP6_ISR
000081ea   _EQEP1_ISR
000081f4   _EQEP2_ISR
000081fe   _EQEP3_ISR
00008208   _SPIA_RX_ISR
00008212   _SPIA_TX_ISR
0000821c   _SPIB_RX_ISR
00008226   _SPIB_TX_ISR
00008230   _MCBSPA_RX_ISR
0000823a   _MCBSPA_TX_ISR
00008244   _MCBSPB_RX_ISR
0000824e   _MCBSPB_TX_ISR
00008258   _DMA_CH1_ISR
00008262   _DMA_CH2_ISR
0000826c   _DMA_CH3_ISR
00008276   _DMA_CH4_ISR
00008280   _DMA_CH5_ISR
0000828a   _DMA_CH6_ISR
00008294   _I2CA_ISR
0000829e   _I2CA_FIFO_ISR
000082a8   _I2CB_ISR
000082b2   _I2CB_FIFO_ISR
000082bc   _SCIC_RX_ISR
000082c6   _SCIC_TX_ISR
000082d0   _SCID_RX_ISR
000082da   _SCID_TX_ISR
000082e4   _SCIA_RX_ISR
000082ee   _SCIA_TX_ISR
000082f8   _SCIB_RX_ISR
00008302   _SCIB_TX_ISR
0000830c   _CANA0_ISR
00008316   _CANA1_ISR
00008320   _CANB0_ISR
0000832a   _CANB1_ISR
00008334   _ADCA_EVT_ISR
0000833e   _ADCA2_ISR
00008348   _ADCA3_ISR
00008352   _ADCA4_ISR
0000835c   _ADCB_EVT_ISR
00008366   _ADCB2_ISR
00008370   _ADCB3_ISR
0000837a   _ADCB4_ISR
00008384   _CLA1_1_ISR
0000838e   _CLA1_2_ISR
00008398   _CLA1_3_ISR
000083a2   _CLA1_4_ISR
000083ac   _CLA1_5_ISR
000083b6   _CLA1_6_ISR
000083c0   _CLA1_7_ISR
000083ca   _CLA1_8_ISR
000083d4   _XINT3_ISR
000083de   _XINT4_ISR
000083e8   _XINT5_ISR
000083f2   _VCU_ISR
000083fc   _FPU_OVERFLOW_ISR
00008406   _FPU_UNDERFLOW_ISR
00008410   _IPC0_ISR
0000841a   _IPC1_ISR
00008424   _IPC2_ISR
0000842e   _IPC3_ISR
00008438   _EPWM9_TZ_ISR
00008442   _EPWM10_TZ_ISR
0000844c   _EPWM11_TZ_ISR
00008456   _EPWM12_TZ_ISR
00008460   _EPWM9_ISR
0000846a   _EPWM10_ISR
00008474   _EPWM11_ISR
0000847e   _EPWM12_ISR
00008488   _SD1_ISR
00008492   _SD2_ISR
0000849c   _SPIC_RX_ISR
000084a6   _SPIC_TX_ISR
000084b0   _UPPA_ISR
000084ba   _USBA_ISR
000084c4   _ADCC_EVT_ISR
000084ce   _ADCC2_ISR
000084d8   _ADCC3_ISR
000084e2   _ADCC4_ISR
000084ec   _ADCD_EVT_ISR
000084f6   _ADCD2_ISR
00008500   _ADCD3_ISR
0000850a   _ADCD4_ISR
00008514   _EMIF_ERROR_ISR
0000851e   _RAM_CORRECTABLE_ERROR_ISR
00008528   _FLASH_CORRECTABLE_ERROR_ISR
00008532   _RAM_ACCESS_VIOLATION_ISR
0000853c   _SYS_PLL_SLIP_ISR
00008546   _AUX_PLL_SLIP_ISR
00008550   _CLA_OVERFLOW_ISR
0000855a   _CLA_UNDERFLOW_ISR
00008564   _PIE_RESERVED_ISR
0000856e   _EMPTY_ISR
0000857b   _NOTUSED_ISR
00008585   _InitGpio
000085c5   _GPIO_SetupPinMux
00008656   _GPIO_SetupPinOptions
000086ec   _GPIO_SetupLock
00008714   _GPIO_SetupXINT1Gpio
0000871e   _GPIO_SetupXINT2Gpio
00008728   _GPIO_SetupXINT3Gpio
00008732   _GPIO_SetupXINT4Gpio
0000873c   _GPIO_SetupXINT5Gpio
00008746   _GPIO_EnableUnbondedIOPullupsFor176Pin
0000875f   _GPIO_EnableUnbondedIOPullupsFor100Pin
00008784   _GPIO_EnableUnbondedIOPullups
0000879a   _GPIO_ReadPin
000087b1   _GPIO_WritePin
000087d0   _InitPieVectTable
000087f5   U$$DIV
000087fa   U$$MOD
00008800   _error
00008802   _readdx
00008833   _senddx
0000887f   _ping
0000889f   _reset
000088bf   _bulkreaddx
0000893b   _led
00008951   _retfowr
00008967   _mvf
000089dd   _mv_p
00008a1d   _mv_s
00008a91   _setoffset
00008ab6   _setcwlimit
00008adb   _setccwlimit
00008b00   _syncmv
00008c0a   _main
00008d53   _ConfigureADC
00008d6e   _SetupADCEpwm
00008d9a   _motorstop
00008da0   _ConfigureGPIO
00008e29   _testprint
00008e2a   _posinit
00008f2e   _ATpnt
00008f6c   _itoa
00008f8e   _c_int00
00008fd4   ___memcpy_ff
00009000   _scia_fifo_init
0000903a   _scib_fifo_init
00009061   _scic_fifo_init
000090ad   _scia_xmit
000090b6   _scia_msg
00009110   _scia_rcv
00009118   _scib_xmit
00009121   _scib_msg
00009169   _scib_rcv
00009171   _scic_xmit
0000917e   _scic_msg
0000919b   _scic_rcv
000091ad   _UARTIntclear
000091f1   _IsBufferFull
00009209   _IsBufferEmpty
0000927b   _UARTgets
000092d7   _UARTgetc
0000930b   _UARTPeek
00009362   _epwm1_isr
000093f1   _epwm2_isr
00009480   _epwm4_isr
00009495   _epwm7_isr
00009639   _InitEPwm1Example
00009693   _InitEPwm2Example
000096ed   _InitEPwm4Example
0000974a   _InitEPwm7Example
000097a1   _InitEPwmvariable
000097b2   __args_main
000097cb   C$$EXIT
000097cb   _abort
000097cd   _exit
00009800   _InitSysCtrl
00009831   _InitPeripheralClocks
000098b5   _DisablePeripheralClocks
000098cd   _SeizeFlashPump_Bank0
000098dc   _SeizeFlashPump_Bank1
000098eb   _ReleaseFlashPump
000098f5   _ServiceDog
00009903   _DisableDog
00009911   _InitSysPll
0000999a   _InitAuxPll
00009a30   _CsmUnlock
00009a51   _SysIntOsc1Sel
00009a5b   _SysIntOsc2Sel
00009a65   _SysXtalOscSel
00009a71   _AuxIntOsc2Sel
00009a7b   _AuxXtalOscSel
00009a87   _AuxAuxClkSel
00009a91   _IDLE
00009a9a   _STANDBY
00009aa5   _HALT
00009ab6   _HIB
00009aca   _sciaTxFifoIsr
00009b06   _scibTxFifoIsr
00009b43   _scicTxFifoIsr
00009b58   _sciaRxFifoIsr
00009bd5   _scibRxFifoIsr
00009c53   _scicRxFifoIsr
00009d7f   _cpu_timer0_isr
00009f35   _adca1_isr
00009f76   _cpu_timer1_isr
0000a000   _InitEPwmGpio
0000a019   _InitEPwm1Gpio
0000a02b   _InitEPwm2Gpio
0000a03d   _InitEPwm3Gpio
0000a051   _InitEPwm4Gpio
0000a065   _InitEPwm5Gpio
0000a077   _InitEPwm6Gpio
0000a089   _InitEPwm7Gpio
0000a09d   _InitEPwm8Gpio
0000a0b1   _InitEPwm9Gpio
0000a0c3   _InitEPwm10Gpio
0000a0d6   _InitEPwm11Gpio
0000a0ea   _InitEPwm12Gpio
0000a0fd   _AdcSetMode
0000a1a0   _CalAdcINL
0000a1da   _InitCpuTimers
0000a21b   _ConfigCpuTimer
0000a800   _PieVectTableInit
0000aab8   _desv
0000b000   _ustrncpy
0000b02e   _uvsnprintf
0000b24d   _usprintf
0000b25e   _usnprintf
0000b26e   _ulocaltime
0000b365   _umktime
0000b39e   _ustrtoul
0000b437   _ustrtof
0000b565   _ustrlen
0000b575   _ustrstr
0000b58f   _ustrncasecmp
0000b5d2   _ustrcasecmp
0000b5dd   _ustrncmp
0000b606   _ustrcmp
0000b611   _usrand
0000b618   _urand
0000b622   _free
0000b665   _minit
0000b68b   _malloc
0000b6ea   _realloc
0000b79f   _max_free
0000b7c1   _free_memory
0000b7df   _chkheap
0000b7e1   _calloc
0000b7f9   _strcpy
0000c000   __sys_memory
0000d000   __stack
0000e000   __STACK_END
00012000   _wfing
00012001   _wfrcvnum
00012002   _lengscib
00012003   _ATcnt
00012004   _ecing
00012005   _ATcnt2
00012006   _SCI_PRD
00012007   _SCI_PRDa
00012008   _b_ui16UARTRxWriteIndex
00012009   _bufa
0001200a   _bufb
0001200b   _b_ui16UARTRxReadIndex
0001200e   _rdata
0001200f   _rdata_pointA
00012010   _SCI_PRDb
00012011   _atxing
00012012   _graphdata
00012013   _a_ui16UARTTxReadIndex
00012014   _a_ui16UARTRxWriteIndex
00012015   _a_ui16UARTTxWriteIndex
00012016   _b_ui16UARTTxReadIndex
00012017   _b_ui16UARTTxWriteIndex
00012018   _a_ui16UARTRxReadIndex
0001201a   _CPU_FREQ
0001201c   _dx_baud
0001201e   _SCI_FREQa
00012020   _SCI_FREQb
00012022   _SCI_FREQ
00012024   _trdelay
00012026   _LSPCLK_FREQ
00012028   _rdataA
00012040   _wizfi
00012055   _sdataA
00012080   _gps
000120c0   _ATtxmsg
00012100   _ATrxmsg
00012140   _imu
00012180   _b_pcUARTTxBuffer
00012280   _b_pcUARTRxBuffer
00012380   _a_pcUARTRxBuffer
00012480   _a_pcUARTTxBuffer
00012580   _autoloop
00012581   _done
00012582   _rcvid
00012583   _j
00012584   _ATmode
00012585   _cmd
00012586   _k
00012587   _test
00012588   _rcvnum
00012589   _rcvstart
0001258a   _rcvsuc
0001258b   _sleng
0001258c   _bufferFull
0001258d   _resultsIndex
0001258e   _testcnt
0001258f   _mt
00012590   _find
00012591   _err
00012592   _uid
00012593   _toen
00012594   _rcvflag
00012595   _ledonoff
00012596   _atpntflag
00012598   _curtime
0001259a   _excutetime
0001259c   _ATmsg2
0001259e   _temp
000125a0   _prevtime
000125a2   _ATmsg
000125a4   _temp2
000125a6   _endtime
000125a8   _t
000125aa   _degknee
000125ac   _degpel
000125ae   _pi
000125b0   _intogo
000125b2   _intovel
000125b4   _degtogo
000125b6   _itoabuf
000125bb   _p
000125c0   _itoabuf2
000125c5   _posint
000125ce   _traj
000125d6   _p2
000125de   _oset2
000125e6   _oset
000125ee   _dir
000125f6   _goalpos2
00012600   _goalpos
00012608   _initpos
00012610   _obs
0001261a   _epwm2_info
00012624   _epwm1_info
0001262e   _epwm4_info
00012640   _pos
00012650   _posavg
00012660   _AdcaResults
00012680   _posk
00012700   _posp
00012766   _CpuTimer1
0001276e   _CpuTimer2
00012776   _CpuTimer0
00012780   _dir2
00012781   _cmd2
00012782   _enal
00012783   _enar
00012784   _duty16
00012785   _period
00012786   _numout
00012787   _dir1
00012788   _ena
0001278a   _duty
0001278c   _pwmtimer1
0001278e   _btxbuf
00012790   _cmdbuf2
00012792   _tempa
00012794   _cmdbuf
00012796   _printbuf
000127aa   _releng
000127ac   _gearrt
000127bc   __unlock
000127be   __lock
000127d4   ___TI_cleanup_ptr
000127d6   ___TI_dtors_ptr
00047000   _Emif1Regs
00047800   _Emif2Regs
00050024   _FlashPumpSemaphoreRegs
0005d000   _DevCfgRegs
0005d180   _AnalogSubsysRegs
0005d200   _ClkCfgRegs
0005d300   _CpuSysRegs
0005e608   _RomPrefetchRegs
0005f000   _DcsmZ1Regs
0005f040   _DcsmZ2Regs
0005f070   _DcsmCommonRegs
0005f400   _MemCfgRegs
0005f480   _Emif1ConfigRegs
0005f4a0   _Emif2ConfigRegs
0005f4c0   _AccessProtectionRegs
0005f500   _MemoryErrorRegs
0005f540   _RomWaitStateRegs
0005f800   _Flash0CtrlRegs
0005fb00   _Flash0EccRegs
0005fc00   _Flash1CtrlRegs
0005ff00   _Flash1EccRegs
00078000   _DcsmZ1Otp
00078200   _DcsmZ2Otp
ffffffff   .text
ffffffff   ___binit__
ffffffff   ___c_args__
ffffffff   ___etext__
ffffffff   ___pinit__
ffffffff   ___text__
ffffffff   binit
ffffffff   etext
ffffffff   pinit

[537 symbols]
